       1 000000 012701  000004          START: MOV #04, R1;
       2 000004 012702  000004                 MOV #04, R2;
       3 000010 020102                         CMP R1, R2;
       4 000012 001403                         BEQ TEST2;
       5 000014 012705  000001                 MOV #01, R5;
       6 000020 010546                         MOV R5, -(SP);
       7 000022 005301                  TEST2: DEC R1;
       8 000024 020102                         CMP R1, R2;
       9 000026 001003                         BNE TEST3;
      10 000030 012705  000002                 MOV #02, R5;
      11 000034 010546                         MOV R5, -(SP);
      12 000036 005401                  TEST3: NEG R1;
      13 000040 100403                         BMI TEST4;
      14 000042 012705  000003                 MOV #03, R5;
      15 000046 010546                         MOV R5, -(SP);
      16 000050 005401                  TEST4: NEG R1;
      17 000052 100003                         BPL TEST5;
      18 000054 012705  000004                 MOV #04, R5;
      19 000060 010546                         MOV R5, -(SP);
      20 000062 012701  000003          TEST5: MOV #03, R1;
      21 000066 006201                         ASR R1;
      22 000070 103403                         BCS TEST6;
      23 000072 012705  000005                 MOV #05, R5;
      24 000076 010546                         MOV R5, -(SP);
      25 000100 006101                  TEST6: ROL R1;
      26 000102 103003                         BCC TEST7;
      27 000104 012705  000006                 MOV #06, R5;
      28 000110 010546                         MOV R5, -(SP);
      29 000112 012703  077777          TEST7: MOV #077777, R3;
      30 000116 000261                         SEC;
      31 000120 005503                         ADC R3;
      32 000122 102403                         BVS TEST8;
      33 000124 012705  000007                 MOV #07, R5;
      34 000130 010546                         MOV R5, -(SP);
      35 000132 005101                  TEST8: COM R1;
      36 000134 102003                         BVC TEST9;
      37 000136 012705  000010                 MOV #010, R5;
      38 000142 010546                         MOV R5, -(SP);
      39 000144 020102                  TEST9: CMP R1, R2;
      40 000146 002403                         BLT TEST10;
      41 000150 012705  000011                 MOV #011, R5;
      42 000154 010546                         MOV R5, -(SP);
      43 000156 005101                  TEST10: COM R1;
      44 000160 005201                          INC R1;
      45 000162 005201                          INC R1;
      46 000164 020102                          CMP R1, R2;
      47 000166 002003                          BGE TEST11;
      48 000170 012705  000012                  MOV #012, R5;
      49 000174 010546                          MOV R5, -(SP);
      50 000176 012701  000004          TEST11: MOV #04, R1;
      51 000202 012702  000004                  MOV #04, R2;
      52 000206 020102                          CMP R1, R2;
      53 000210 003403                          BLE TEST12;
      54 000212 012705  000013                  MOV #013, R5;
      55 000216 010546                          MOV R5, -(SP);
      56 000220 012701  000005          TEST12: MOV #05, R1;
      57 000224 020102                          CMP R1, R2;
      58 000226 003003                          BGT TEST13;
      59 000230 012705  000014                  MOV #014, R5;
      60 000234 010546                          MOV R5, -(SP);
      61 000236 020102                  TEST13: CMP R1, R2;
      62 000240 101003                          BHI TEST14;
      63 000242 012705  000015                  MOV #015, R5;
      64 000246 010546                          MOV R5, -(SP);
      65 000250 005001                  TEST14: CLR R1;
      66 000252 101403                          BLOS TEST15;
      67 000254 012705  000016                  MOV #016, R5;
      68 000260 010546                          MOV R5, -(SP);
      69 000262 000261                  TEST15: SEC;
      70 000264 103403                          BLO TEST16;
      71 000266 012705  000017                  MOV #017, R5;
      72 000272 010546                          MOV R5, -(SP);
      73 000274 000241                  TEST16: CLC;
      74 000276 103003                          BHIS TEST17;
      75 000300 012705  000020                  MOV #020, R5;
      76 000304 010546                          MOV R5, -(SP);
      77 000306 000403                  TEST17: BR TEST18;
      78 000310 012705  000021                  MOV #021, R5;
      79 000314 010546                          MOV R5, -(SP);
      80 000316 000000                  TEST18: HALT
      80                                
